target datalayout = "e-m:e-p270:32:32-p271:32:32-p272:64:64-i64:64-i128:128-f80:128-n8:16:32:64-S128"
target triple = "x86_64-pc-linux-gnu"

%class.BitMap = type { ptr, i64 }
%class.G1HeapRegionManager = type { ptr, ptr, %class.G1CommittedRegionMap, i32, [4 x i8], %class.G1HeapRegionTable, ptr, ptr, %class.G1FreeRegionList }
%class.G1CommittedRegionMap = type { ptr, %class.CHeapBitMap, %class.CHeapBitMap, i32, i32 }
%class.CHeapBitMap = type <{ %class.GrowableBitMap, i8, [7 x i8] }>
%class.GrowableBitMap = type { %class.BitMap }
%class.G1HeapRegionTable = type { %class.G1BiasedMappedArray.base, [4 x i8] }
%class.G1BiasedMappedArray.base = type { %class.G1BiasedMappedArrayBase.base }
%class.G1BiasedMappedArrayBase.base = type <{ ptr, ptr, ptr, i64, ptr, i64, i32 }>
%class.G1FreeRegionList = type { %class.G1HeapRegionSetBase.base, ptr, ptr, ptr, ptr }
%class.G1HeapRegionSetBase.base = type <{ ptr, ptr, i32, [4 x i8], ptr, i8 }>
%class.G1HeapRegionRange = type { i32, i32 }

; Function Attrs: mustprogress nounwind uwtable
define hidden void @_ZN19G1HeapRegionManager31clear_auxiliary_data_structuresEjj(ptr noundef nonnull align 8 dereferenceable(232) %0, i32 noundef %1, i32 noundef %2) #1 align 2 {
  %4 = alloca ptr, align 8
  %5 = alloca i32, align 4
  %6 = alloca i32, align 4
  store ptr %0, ptr %4, align 8
  store i32 %1, ptr %5, align 4
  store i32 %2, ptr %6, align 4
  %7 = load ptr, ptr %4, align 8
  %8 = getelementptr inbounds %class.G1HeapRegionManager, ptr %7, i32 0, i32 7
  %9 = load ptr, ptr %8, align 8
  %10 = load i32, ptr %5, align 4
  %11 = load i32, ptr %6, align 4
  %12 = zext i32 %11 to i64
  call void @_ZN21G1RegionToSpaceMapper22signal_mapping_changedEjm(ptr noundef nonnull align 8 dereferenceable(129) %9, i32 noundef %10, i64 noundef %12)
  %13 = getelementptr inbounds %class.G1HeapRegionManager, ptr %7, i32 0, i32 0
  %14 = load ptr, ptr %13, align 8
  %15 = load i32, ptr %5, align 4
  %16 = load i32, ptr %6, align 4
  %17 = zext i32 %16 to i64
  call void @_ZN21G1RegionToSpaceMapper22signal_mapping_changedEjm(ptr noundef nonnull align 8 dereferenceable(129) %14, i32 noundef %15, i64 noundef %17)
  %18 = getelementptr inbounds %class.G1HeapRegionManager, ptr %7, i32 0, i32 1
  %19 = load ptr, ptr %18, align 8
  %20 = load i32, ptr %5, align 4
  %21 = load i32, ptr %6, align 4
  %22 = zext i32 %21 to i64
  call void @_ZN21G1RegionToSpaceMapper22signal_mapping_changedEjm(ptr noundef nonnull align 8 dereferenceable(129) %19, i32 noundef %20, i64 noundef %22)
  ret void
}

; Function Attrs: mustprogress nounwind uwtable
define linkonce_odr hidden noundef i32 @_ZNK17G1HeapRegionRange3endEv(ptr noundef nonnull align 4 dereferenceable(8) %0) #1 comdat align 2 {
  %2 = alloca ptr, align 8
  store ptr %0, ptr %2, align 8
  %3 = load ptr, ptr %2, align 8
  %4 = getelementptr inbounds %class.G1HeapRegionRange, ptr %3, i32 0, i32 1
  %5 = load i32, ptr %4, align 4
  ret i32 %5
}

; Function Attrs: mustprogress nounwind uwtable
define hidden void @_ZN19G1HeapRegionManager18reactivate_regionsEjj(ptr noundef nonnull align 8 dereferenceable(232) %0, i32 noundef %1, i32 noundef %2) #1 align 2 {
  %4 = alloca ptr, align 8
  %5 = alloca i32, align 4
  %6 = alloca i32, align 4
  store ptr %0, ptr %4, align 8
  store i32 %1, ptr %5, align 4
  store i32 %2, ptr %6, align 4
  %7 = load ptr, ptr %4, align 8
  %8 = load i32, ptr %5, align 4
  %9 = load i32, ptr %6, align 4
  call void @_ZN19G1HeapRegionManager31clear_auxiliary_data_structuresEjj(ptr noundef nonnull align 8 dereferenceable(232) %7, i32 noundef %8, i32 noundef %9)
  %10 = getelementptr inbounds %class.G1HeapRegionManager, ptr %7, i32 0, i32 2
  %11 = load i32, ptr %5, align 4
  %12 = load i32, ptr %5, align 4
  %13 = load i32, ptr %6, align 4
  %14 = add i32 %12, %13
  call void @_ZN20G1CommittedRegionMap10reactivateEjj(ptr noundef nonnull align 8 dereferenceable(64) %10, i32 noundef %11, i32 noundef %14)
  %15 = load i32, ptr %5, align 4
  %16 = load i32, ptr %6, align 4
  call void @_ZN19G1HeapRegionManager18initialize_regionsEjj(ptr noundef nonnull align 8 dereferenceable(232) %7, i32 noundef %15, i32 noundef %16)
  ret void
}

; Function Attrs: mustprogress nounwind uwtable
define linkonce_odr hidden noundef i32 @_ZNK17G1HeapRegionRange5startEv(ptr noundef nonnull align 4 dereferenceable(8) %0) #1 comdat align 2 {
  %2 = alloca ptr, align 8
  store ptr %0, ptr %2, align 8
  %3 = load ptr, ptr %2, align 8
  %4 = getelementptr inbounds %class.G1HeapRegionRange, ptr %3, i32 0, i32 0
  %5 = load i32, ptr %4, align 4
  ret i32 %5
}

; Function Attrs: mustprogress nounwind uwtable
define linkonce_odr hidden noundef i32 @_Z4MIN2IjET_S0_S0_(i32 noundef %0, i32 noundef %1) #1 comdat {
  %3 = alloca i32, align 4
  %4 = alloca i32, align 4
  store i32 %0, ptr %3, align 4
  store i32 %1, ptr %4, align 4
  %5 = load i32, ptr %3, align 4
  %6 = load i32, ptr %4, align 4
  %7 = icmp ult i32 %5, %6
  br i1 %7, label %8, label %10

8:                                                ; preds = %2
  %9 = load i32, ptr %3, align 4
  br label %12

10:                                               ; preds = %2
  %11 = load i32, ptr %4, align 4
  br label %12

12:                                               ; preds = %10, %8
  %13 = phi i32 [ %9, %8 ], [ %11, %10 ]
  ret i32 %13
}

; Function Attrs: mustprogress nounwind uwtable
define linkonce_odr hidden noundef i32 @_ZNK17G1HeapRegionRange6lengthEv(ptr noundef nonnull align 4 dereferenceable(8) %0) #1 comdat align 2 {
  %2 = alloca ptr, align 8
  store ptr %0, ptr %2, align 8
  %3 = load ptr, ptr %2, align 8
  %4 = getelementptr inbounds %class.G1HeapRegionRange, ptr %3, i32 0, i32 1
  %5 = load i32, ptr %4, align 4
  %6 = getelementptr inbounds %class.G1HeapRegionRange, ptr %3, i32 0, i32 0
  %7 = load i32, ptr %6, align 4
  %8 = sub i32 %5, %7
  ret i32 %8
}

; Function Attrs: mustprogress nounwind uwtable
define hidden noundef i32 @_ZN19G1HeapRegionManager15expand_inactiveEj(ptr noundef nonnull align 8 dereferenceable(232) %0, i32 noundef %1) #1 align 2 {
  %3 = alloca ptr, align 8
  %4 = alloca i32, align 4
  %5 = alloca i32, align 4
  %6 = alloca i32, align 4
  %7 = alloca %class.G1HeapRegionRange, align 4
  %8 = alloca i32, align 4
  store ptr %0, ptr %3, align 8
  store i32 %1, ptr %4, align 4
  %9 = load ptr, ptr %3, align 8
  store i32 0, ptr %5, align 4
  store i32 0, ptr %6, align 4
  br label %10

10:                                               ; preds = %29, %2
  %11 = getelementptr inbounds %class.G1HeapRegionManager, ptr %9, i32 0, i32 2
  %12 = load i32, ptr %5, align 4
  %13 = call i64 @_ZNK20G1CommittedRegionMap19next_inactive_rangeEj(ptr noundef nonnull align 8 dereferenceable(64) %11, i32 noundef %12)
  store i64 %13, ptr %7, align 4
  %14 = call noundef i32 @_ZNK17G1HeapRegionRange6lengthEv(ptr noundef nonnull align 4 dereferenceable(8) %7)
  %15 = icmp eq i32 %14, 0
  br i1 %15, label %16, label %17

16:                                               ; preds = %10
  br label %33

17:                                               ; preds = %10
  %18 = load i32, ptr %4, align 4
  %19 = load i32, ptr %6, align 4
  %20 = sub i32 %18, %19
  %21 = call noundef i32 @_ZNK17G1HeapRegionRange6lengthEv(ptr noundef nonnull align 4 dereferenceable(8) %7)
  %22 = call noundef i32 @_Z4MIN2IjET_S0_S0_(i32 noundef %20, i32 noundef %21)
  store i32 %22, ptr %8, align 4
  %23 = call noundef i32 @_ZNK17G1HeapRegionRange5startEv(ptr noundef nonnull align 4 dereferenceable(8) %7)
  %24 = load i32, ptr %8, align 4
  call void @_ZN19G1HeapRegionManager18reactivate_regionsEjj(ptr noundef nonnull align 8 dereferenceable(232) %9, i32 noundef %23, i32 noundef %24)
  %25 = load i32, ptr %8, align 4
  %26 = load i32, ptr %6, align 4
  %27 = add i32 %26, %25
  store i32 %27, ptr %6, align 4
  %28 = call noundef i32 @_ZNK17G1HeapRegionRange3endEv(ptr noundef nonnull align 4 dereferenceable(8) %7)
  store i32 %28, ptr %5, align 4
  br label %29

29:                                               ; preds = %17
  %30 = load i32, ptr %6, align 4
  %31 = load i32, ptr %4, align 4
  %32 = icmp ult i32 %30, %31
  br i1 %32, label %10, label %33, !llvm.loop !16

33:                                               ; preds = %29, %16
  %34 = load i32, ptr %6, align 4
  ret i32 %34
}