; Function Attrs: mustprogress nounwind uwtable
define hidden noundef i32 @_ZN19G1HeapRegionManager15expand_inactiveEj(ptr noundef nonnull align 8 dereferenceable(232) %0, i32 noundef %1) local_unnamed_addr #0 align 2 {
  %3 = getelementptr inbounds i8, ptr %0, i64 16
  %4 = getelementptr inbounds i8, ptr %0, i64 152
  %5 = getelementptr inbounds i8, ptr %0, i64 8
  br label %6

6:                                                ; preds = %9, %2
  %.09 = phi i32 [ 0, %2 ], [ %18, %9 ]
  %.0 = phi i32 [ 0, %2 ], [ %.sroa.4.0.extract.trunc, %9 ]
  %7 = tail call i64 @_ZNK20G1CommittedRegionMap19next_inactive_rangeEj(ptr noundef nonnull align 8 dereferenceable(64) %3, i32 noundef %.0) #16
  %.sroa.0.0.extract.trunc = trunc i64 %7 to i32
  %.sroa.4.0.extract.shift = lshr i64 %7, 32
  %.sroa.4.0.extract.trunc = trunc nuw i64 %.sroa.4.0.extract.shift to i32
  %8 = icmp eq i32 %.sroa.4.0.extract.trunc, %.sroa.0.0.extract.trunc
  br i1 %8, label %20, label %9

9:                                                ; preds = %6
  %10 = sub i32 %.sroa.4.0.extract.trunc, %.sroa.0.0.extract.trunc
  %11 = sub i32 %1, %.09
  %12 = tail call noundef i32 @llvm.umin.i32(i32 %11, i32 %10)
  %13 = load ptr, ptr %4, align 8
  %14 = zext i32 %12 to i64
  tail call void @_ZN21G1RegionToSpaceMapper22signal_mapping_changedEjm(ptr noundef nonnull align 8 dereferenceable(129) %13, i32 noundef %.sroa.0.0.extract.trunc, i64 noundef %14) #16
  %15 = load ptr, ptr %0, align 8
  tail call void @_ZN21G1RegionToSpaceMapper22signal_mapping_changedEjm(ptr noundef nonnull align 8 dereferenceable(129) %15, i32 noundef %.sroa.0.0.extract.trunc, i64 noundef %14) #16
  %16 = load ptr, ptr %5, align 8
  tail call void @_ZN21G1RegionToSpaceMapper22signal_mapping_changedEjm(ptr noundef nonnull align 8 dereferenceable(129) %16, i32 noundef %.sroa.0.0.extract.trunc, i64 noundef %14) #16
  %17 = add i32 %12, %.sroa.0.0.extract.trunc
  tail call void @_ZN20G1CommittedRegionMap10reactivateEjj(ptr noundef nonnull align 8 dereferenceable(64) %3, i32 noundef %.sroa.0.0.extract.trunc, i32 noundef %17) #16
  tail call void @_ZN19G1HeapRegionManager18initialize_regionsEjj(ptr noundef nonnull align 8 dereferenceable(232) %0, i32 noundef %.sroa.0.0.extract.trunc, i32 noundef %12)
  %18 = add i32 %12, %.09
  %19 = icmp ult i32 %18, %1
  br i1 %19, label %6, label %20, !llvm.loop !21

20:                                               ; preds = %6, %9
  %.1 = phi i32 [ %.09, %6 ], [ %18, %9 ]
  ret i32 %.1
}